target datalayout = "e-m:e-p270:32:32-p271:32:32-p272:64:64-i64:64-i128:128-f80:128-n8:16:32:64-S128"
target triple = "x86_64-unknown-linux-gnu"

%"class.OpenImageIO_v2_6_0::ImageBuf::IteratorBase" = type <{ ptr, i8, i8, i8, i8, i32, i32, i32, i32, i32, i32, i32, i32, i32, i32, i32, i32, i32, i32, i32, ptr, i32, i32, i32, i32, i32, [4 x i8], i64, ptr, i32, i8, [3 x i8] }>

; Function Attrs: mustprogress uwtable
define linkonce_odr void @_ZNK18OpenImageIO_v2_6_08ImageBuf8getpixelEiiPfi(ptr noundef nonnull align 8 dereferenceable(16) %this, i32 noundef %x, i32 noundef %y, ptr noundef %pixel, i32 noundef %maxchannels) #6 comdat align 2 {
entry:
  %this.addr = alloca ptr, align 8
  %x.addr = alloca i32, align 4
  %y.addr = alloca i32, align 4
  %pixel.addr = alloca ptr, align 8
  %maxchannels.addr = alloca i32, align 4
  store ptr %this, ptr %this.addr, align 8
  store i32 %x, ptr %x.addr, align 4
  store i32 %y, ptr %y.addr, align 4
  store ptr %pixel, ptr %pixel.addr, align 8
  store i32 %maxchannels, ptr %maxchannels.addr, align 4
  %this1 = load ptr, ptr %this.addr, align 8
  %0 = load i32, ptr %x.addr, align 4
  %1 = load i32, ptr %y.addr, align 4
  %2 = load ptr, ptr %pixel.addr, align 8
  %3 = load i32, ptr %maxchannels.addr, align 4
  call void @_ZNK18OpenImageIO_v2_6_08ImageBuf8getpixelEiiiPfiNS0_8WrapModeE(ptr noundef nonnull align 8 dereferenceable(16) %this1, i32 noundef %0, i32 noundef %1, i32 noundef 0, ptr noundef %2, i32 noundef %3, i32 noundef 1)
  ret void
}

; Function Attrs: mustprogress nounwind uwtable
define linkonce_odr noundef i32 @_ZNK18OpenImageIO_v2_6_08ImageBuf12IteratorBase1yEv(ptr noundef nonnull align 8 dereferenceable(125) %this) #4 comdat align 2 {
entry:
  %this.addr = alloca ptr, align 8
  store ptr %this, ptr %this.addr, align 8
  %this1 = load ptr, ptr %this.addr, align 8
  %m_y = getelementptr inbounds %"class.OpenImageIO_v2_6_0::ImageBuf::IteratorBase", ptr %this1, i32 0, i32 18
  %0 = load i32, ptr %m_y, align 8
  ret i32 %0
}

; Function Attrs: mustprogress nounwind uwtable
define linkonce_odr noundef i32 @_ZNK18OpenImageIO_v2_6_08ImageBuf12IteratorBase1xEv(ptr noundef nonnull align 8 dereferenceable(125) %this) #4 comdat align 2 {
entry:
  %this.addr = alloca ptr, align 8
  store ptr %this, ptr %this.addr, align 8
  %this1 = load ptr, ptr %this.addr, align 8
  %m_x = getelementptr inbounds %"class.OpenImageIO_v2_6_0::ImageBuf::IteratorBase", ptr %this1, i32 0, i32 17
  %0 = load i32, ptr %m_x, align 4
  ret i32 %0
}

; Function Attrs: mustprogress uwtable
define internal void @_ZL15normal_gradientRKN18OpenImageIO_v2_6_08ImageBufERKNS0_8IteratorIffEEPfS7_S7_(ptr noundef nonnull align 8 dereferenceable(16) %src, ptr noundef nonnull align 8 dereferenceable(125) %dstpix, ptr noundef %h, ptr noundef %dh_ds, ptr noundef %dh_dt) #6 {
entry:
  %src.addr = alloca ptr, align 8
  %dstpix.addr = alloca ptr, align 8
  %h.addr = alloca ptr, align 8
  %dh_ds.addr = alloca ptr, align 8
  %dh_dt.addr = alloca ptr, align 8
  %n = alloca [3 x float], align 4
  store ptr %src, ptr %src.addr, align 8
  store ptr %dstpix, ptr %dstpix.addr, align 8
  store ptr %h, ptr %h.addr, align 8
  store ptr %dh_ds, ptr %dh_ds.addr, align 8
  store ptr %dh_dt, ptr %dh_dt.addr, align 8
  %0 = load ptr, ptr %src.addr, align 8
  %1 = load ptr, ptr %dstpix.addr, align 8
  %call = call noundef i32 @_ZNK18OpenImageIO_v2_6_08ImageBuf12IteratorBase1xEv(ptr noundef nonnull align 8 dereferenceable(125) %1)
  %2 = load ptr, ptr %dstpix.addr, align 8
  %call1 = call noundef i32 @_ZNK18OpenImageIO_v2_6_08ImageBuf12IteratorBase1yEv(ptr noundef nonnull align 8 dereferenceable(125) %2)
  %arraydecay = getelementptr inbounds [3 x float], ptr %n, i64 0, i64 0
  call void @_ZNK18OpenImageIO_v2_6_08ImageBuf8getpixelEiiPfi(ptr noundef nonnull align 8 dereferenceable(16) %0, i32 noundef %call, i32 noundef %call1, ptr noundef %arraydecay, i32 noundef 3)
  %3 = load ptr, ptr %h.addr, align 8
  store float -1.000000e+00, ptr %3, align 4
  %arrayidx = getelementptr inbounds [3 x float], ptr %n, i64 0, i64 0
  %4 = load float, ptr %arrayidx, align 4
  %fneg = fneg float %4
  %arrayidx2 = getelementptr inbounds [3 x float], ptr %n, i64 0, i64 2
  %5 = load float, ptr %arrayidx2, align 4
  %div = fdiv float %fneg, %5
  %6 = load ptr, ptr %dh_ds.addr, align 8
  store float %div, ptr %6, align 4
  %arrayidx3 = getelementptr inbounds [3 x float], ptr %n, i64 0, i64 1
  %7 = load float, ptr %arrayidx3, align 4
  %fneg4 = fneg float %7
  %arrayidx5 = getelementptr inbounds [3 x float], ptr %n, i64 0, i64 2
  %8 = load float, ptr %arrayidx5, align 4
  %div6 = fdiv float %fneg4, %8
  %9 = load ptr, ptr %dh_dt.addr, align 8
  store float %div6, ptr %9, align 4
  ret void
}