; Function Attrs: mustprogress uwtable
define internal void @_ZL15normal_gradientRKN18OpenImageIO_v2_6_08ImageBufERKNS0_8IteratorIffEEPfS7_S7_(ptr noundef nonnull align 8 dereferenceable(16) %src, ptr nocapture noundef nonnull readonly align 8 dereferenceable(125) %dstpix, ptr nocapture noundef writeonly %h, ptr nocapture noundef writeonly %dh_ds, ptr nocapture noundef writeonly %dh_dt) #5 {
entry:
  %n = alloca [3 x float], align 4
  %m_x.i = getelementptr inbounds i8, ptr %dstpix, i64 60
  %0 = load i32, ptr %m_x.i, align 4
  %m_y.i = getelementptr inbounds i8, ptr %dstpix, i64 64
  %1 = load i32, ptr %m_y.i, align 8
  call void @_ZNK18OpenImageIO_v2_6_08ImageBuf8getpixelEiiiPfiNS0_8WrapModeE(ptr noundef nonnull align 8 dereferenceable(16) %src, i32 noundef %0, i32 noundef %1, i32 noundef 0, ptr noundef nonnull %n, i32 noundef 3, i32 noundef 1)
  store float -1.000000e+00, ptr %h, align 4
  %2 = load float, ptr %n, align 4
  %fneg = fneg float %2
  %arrayidx2 = getelementptr inbounds i8, ptr %n, i64 8
  %3 = load float, ptr %arrayidx2, align 4
  %div = fdiv float %fneg, %3
  store float %div, ptr %dh_ds, align 4
  %arrayidx3 = getelementptr inbounds i8, ptr %n, i64 4
  %4 = load float, ptr %arrayidx3, align 4
  %fneg4 = fneg float %4
  %div6 = fdiv float %fneg4, %3
  store float %div6, ptr %dh_dt, align 4
  ret void
}